Certificate:
    Data:
        Version: 3 (0x2)
        Serial Number: 1 (0x1)
    Signature Algorithm: sha256WithRSAEncryption
        Issuer: C=US, ST=Denial, L=Springfield, O=Dis, CN=www.example.com
        Validity
            Not Before: Oct 23 11:07:20 2017 GMT
            Not After : Oct 11 11:07:20 2067 GMT
        Subject: C=US, ST=Denial, O=Dis, CN=www.example.com
        Subject Public Key Info:
            Public Key Algorithm: rsaEncryption
                Public-Key: (2048 bit)
                Modulus:
                    00:c3:ac:95:52:e7:dc:ee:7e:98:7b:59:bb:bf:c4:
                    2e:fe:27:f2:0a:71:1d:54:37:2c:e5:e3:3e:b5:c2:
                    41:c2:f6:45:00:b6:91:dd:d5:7b:03:6a:e3:39:50:
                    83:ce:3b:6a:75:89:fe:71:79:a7:27:87:06:c3:f5:
                    78:b9:96:0f:01:d1:18:5d:7d:77:ee:90:c3:0a:b9:
                    0b:c4:2f:8e:e5:2e:e3:e4:41:0d:11:0b:b7:57:46:
                    87:97:94:9e:3c:da:5e:42:7c:e3:7f:a8:93:af:a9:
                    52:c0:c7:73:9a:61:e5:33:d9:9b:55:38:c0:eb:8f:
                    a5:02:5d:9f:ab:8e:f8:4d:d1:a3:9e:1f:5d:15:b4:
                    6a:70:51:97:eb:0e:46:f4:6f:cf:6a:13:69:ae:b5:
                    fe:82:5e:75:d7:ed:59:2b:d3:df:1a:d2:37:33:6b:
                    b1:1e:7b:4c:21:86:aa:45:bb:02:72:7f:f8:2a:8f:
                    59:ef:98:72:ab:a2:9a:c6:7b:05:da:bf:31:c1:9c:
                    72:6d:3a:04:00:8e:e4:41:0b:e9:2c:34:86:fc:b7:
                    1c:7f:4f:6b:a0:b0:f5:26:33:f0:97:60:90:2b:89:
                    01:b4:68:c9:69:3e:81:92:3e:a5:71:cd:2d:de:e2:
                    e0:6f:10:56:5e:aa:6d:8e:9f:68:ba:a3:de:d0:e5:
                    a0:59
                Exponent: 65537 (0x10001)
        X509v3 extensions:
            X509v3 Basic Constraints: 
                CA:FALSE
            Netscape Comment: 
                OpenSSL Generated Certificate
            X509v3 Subject Key Identifier: 
                01:40:57:21:13:EB:06:9A:17:4B:53:13:4D:F1:55:26:0D:18:05:82
            X509v3 Authority Key Identifier: 
                keyid:09:30:F7:6E:DF:FA:06:56:E2:9B:24:A4:BD:23:F6:4F:5C:21:0D:36

    Signature Algorithm: sha256WithRSAEncryption
         3a:b9:f6:3d:84:21:90:f3:09:e5:e3:b2:27:c0:9c:15:fe:c3:
         49:fd:93:20:23:3d:20:a0:1d:39:11:c6:5d:42:c7:d4:c3:47:
         29:af:7a:c1:78:15:f2:43:6c:4e:3f:d5:03:cc:be:8d:fe:34:
         bd:b4:08:00:f4:5b:81:1f:a9:2d:60:ea:b7:7e:8d:bd:cd:7c:
         d4:58:3a:43:df:e9:2a:b7:56:af:4c:8f:ba:da:56:23:60:0a:
         28:34:21:6c:54:92:49:c2:db:7e:36:e4:66:76:46:a2:c3:67:
         8b:44:52:55:38:95:c8:f6:ea:79:af:e7:dc:42:4d:f4:73:34:
         a5:ec:28:fb:d7:02:4c:b3:0f:5d:72:89:40:12:14:33:c6:48:
         9d:a5:35:c7:72:9e:14:20:df:9d:67:92:56:69:9b:c2:4f:79:
         4c:2e:a3:c8:55:8e:47:81:28:ee:58:71:23:ec:1e:dd:c1:c1:
         81:90:52:21:bf:d7:03:38:a6:a5:ed:29:84:6a:72:07:60:88:
         6d:0c:1e:3d:d3:16:95:dc:78:04:74:bc:28:36:df:3c:a3:77:
         bc:f4:26:71:ba:21:e6:b0:35:36:f3:ea:87:3c:69:c4:75:32:
         e6:cd:0e:4c:7b:7b:0e:2f:c7:e8:28:9b:a8:47:fe:69:4b:94:
         49:62:85:25
-----BEGIN CERTIFICATE-----
MIIDmjCCAoKgAwIBAgIBATANBgkqhkiG9w0BAQsFADBcMQswCQYDVQQGEwJVUzEP
MA0GA1UECAwGRGVuaWFsMRQwEgYDVQQHDAtTcHJpbmdmaWVsZDEMMAoGA1UECgwD
RGlzMRgwFgYDVQQDDA93d3cuZXhhbXBsZS5jb20wIBcNMTcxMDIzMTEwNzIwWhgP
MjA2NzEwMTExMTA3MjBaMEYxCzAJBgNVBAYTAlVTMQ8wDQYDVQQIDAZEZW5pYWwx
DDAKBgNVBAoMA0RpczEYMBYGA1UEAwwPd3d3LmV4YW1wbGUuY29tMIIBIjANBgkq
hkiG9w0BAQEFAAOCAQ8AMIIBCgKCAQEAw6yVUufc7n6Ye1m7v8Qu/ifyCnEdVDcs
5eM+tcJBwvZFALaR3dV7A2rjOVCDzjtqdYn+cXmnJ4cGw/V4uZYPAdEYXX137pDD
CrkLxC+O5S7j5EENEQu3V0aHl5SePNpeQnzjf6iTr6lSwMdzmmHlM9mbVTjA64+l
Al2fq474TdGjnh9dFbRqcFGX6w5G9G/PahNprrX+gl511+1ZK9PfGtI3M2uxHntM
IYaqRbsCcn/4Ko9Z75hyq6KaxnsF2r8xwZxybToEAI7kQQvpLDSG/Lccf09roLD1
JjPwl2CQK4kBtGjJaT6Bkj6lcc0t3uLgbxBWXqptjp9ouqPe0OWgWQIDAQABo3sw
eTAJBgNVHRMEAjAAMCwGCWCGSAGG+EIBDQQfFh1PcGVuU1NMIEdlbmVyYXRlZCBD
ZXJ0aWZpY2F0ZTAdBgNVHQ4EFgQUAUBXIRPrBpoXS1MTTfFVJg0YBYIwHwYDVR0j
BBgwFoAUCTD3bt/6BlbimySkvSP2T1whDTYwDQYJKoZIhvcNAQELBQADggEBADq5
9j2EIZDzCeXjsifAnBX+w0n9kyAjPSCgHTkRxl1Cx9TDRymvesF4FfJDbE4/1QPM
vo3+NL20CAD0W4EfqS1g6rd+jb3NfNRYOkPf6Sq3Vq9Mj7raViNgCig0IWxUkknC
23425GZ2RqLDZ4tEUlU4lcj26nmv59xCTfRzNKXsKPvXAkyzD11yiUASFDPGSJ2l
NcdynhQg351nklZpm8JPeUwuo8hVjkeBKO5YcSPsHt3BwYGQUiG/1wM4pqXtKYRq
cgdgiG0MHj3TFpXceAR0vCg23zyjd7z0JnG6IeawNTbz6oc8acR1MubNDkx7ew4v
x+gom6hH/mlLlElihSU=
-----END CERTIFICATE-----
-----BEGIN PRIVATE KEY-----
MIIEvgIBADANBgkqhkiG9w0BAQEFAASCBKgwggSkAgEAAoIBAQDDrJVS59zufph7
Wbu/xC7+J/IKcR1UNyzl4z61wkHC9kUAtpHd1XsDauM5UIPOO2p1if5xeacnhwbD
9Xi5lg8B0RhdfXfukMMKuQvEL47lLuPkQQ0RC7dXRoeXlJ482l5CfON/qJOvqVLA
x3OaYeUz2ZtVOMDrj6UCXZ+rjvhN0aOeH10VtGpwUZfrDkb0b89qE2mutf6CXnXX
7Vkr098a0jcza7Eee0whhqpFuwJyf/gqj1nvmHKroprGewXavzHBnHJtOgQAjuRB
C+ksNIb8txx/T2ugsPUmM/CXYJAriQG0aMlpPoGSPqVxzS3e4uBvEFZeqm2On2i6
o97Q5aBZAgMBAAECggEBALf9uAtU6nF3qHmUTu5q0qU5emZHJoThvN4NaBIQrzVb
zFZ3VYF6E0mLYE2sX8O0Ks6LCy44bezFEp+AWhxn9YSH0JlYOUWh6URT67R146+s
/6zJXjgBBEyUjTsDDCe8TZXHSUPoh7ZNSPrskM9B7ftrSpw/2Wemkko/LrxqmyDP
slBikp338YQ5qiABvcXVMDS4SnNCybpjkakegH5TnLK5fAX5huPWvfrYFZ1QCX8e
9QbhJwJtrO7vBtzcUxW7foXAtVPuMz33m4jeRe7BlXcW6zchLoJcxyg9U+UgxYhd
x9ycqgXFM7ysSC3xH1N4hhIwLbuEEkzWf6NZuGSAM+ECgYEA4su2+14+clm1LbCk
CkZuKsAE8UPk93UA3WrGIxpYoeBESji8ZiPTTrLrj+LEW+qj8RLRmo641zYSS5QS
Yd2TT9Xv/l4/F81w7Cg+2Cvq8nPs9TZ9C7baYGw4fd7Mg3Qy8uBpM67UHVTSLPjU
WN+N32AKAFSIvmkP3omV9svCvrMCgYEA3N7zJ1KV6K8KjwLU/kS1nMeqcKi1lsRU
NOem/Q1gaCx4h0C38lsCxvSL0Ek3j6LX7DcwHSY6xS6G0EtJojgRT57GGNh+zD6j
KfqVgSTyQemMXLuGz5B1dykp9VHVT0/dlZ1PWge4fBgRn1jL2ES5kC933PQXDvS8
pxjrwnknKsMCgYEAp+EkEe4xS3QcKTYYN4LrCboZ7n3Tf1mcykm/YTyfXzQjWM2m
p/Tc9eR7eobh0yhdMpY7ka0UJjpgUJHLCaZ65R34CNK64WOxsx4XZu0bfV1SijFL
XuB7xeRV7NZ/jM7259I2DYvcd9nRunh2t1LEMhVlUdlBX7FljdVKrOUnwwECgYAn
4RV0HyQ0DA7S/YbplgxYj3CFwOBwpWgy2TS8cgLbLFRiz1unJamdtJ/d7qpag+OK
ofhM+w8XdSwgRce4w3jUsG1CJSzXweOB+92soLghEIMoZy+TIJkk98i8o5bpKBlx
HyMptUUpGstrwwOjO91pXDi/K09SgvvhC83dojRhMwKBgA98FVEVtqixkNyU6TkJ
LGbbU/+oLvqC7zXQu0kgnISVW0ir6Yj9o42F6ownOJkUqvjNYimCtjxcsqUYAVC8
GDfUeB+L0KfkuJ+4Ii+wb2uAYd/Nskkxa3wHTwQSSmdHSGRW/x/q7Yt5lmRZSNTD
7ft/4ZWkDOcw8pO5+S+sktYZ
-----END PRIVATE KEY-----
